target datalayout = "e-m:e-p270:32:32-p271:32:32-p272:64:64-i64:64-i128:128-f80:128-n8:16:32:64-S128"
target triple = "x86_64-pc-linux-gnu"

; Function Attrs: mustprogress nounwind uwtable
define noundef ptr @_Z9RemoveEOLPw(ptr noundef %0) #0 {
  %2 = alloca ptr, align 8
  %3 = alloca i32, align 4
  store ptr %0, ptr %2, align 8
  %4 = load ptr, ptr %2, align 8
  %5 = call i64 @wcslen(ptr noundef %4) #5
  %6 = trunc i64 %5 to i32
  %7 = sub nsw i32 %6, 1
  store i32 %7, ptr %3, align 4
  br label %8

8:                                                ; preds = %48, %1
  %9 = load i32, ptr %3, align 4
  %10 = icmp sge i32 %9, 0
  br i1 %10, label %11, label %41

11:                                               ; preds = %8
  %12 = load ptr, ptr %2, align 8
  %13 = load i32, ptr %3, align 4
  %14 = sext i32 %13 to i64
  %15 = getelementptr inbounds i32, ptr %12, i64 %14
  %16 = load i32, ptr %15, align 4
  %17 = icmp eq i32 %16, 13
  br i1 %17, label %39, label %18

18:                                               ; preds = %11
  %19 = load ptr, ptr %2, align 8
  %20 = load i32, ptr %3, align 4
  %21 = sext i32 %20 to i64
  %22 = getelementptr inbounds i32, ptr %19, i64 %21
  %23 = load i32, ptr %22, align 4
  %24 = icmp eq i32 %23, 10
  br i1 %24, label %39, label %25

25:                                               ; preds = %18
  %26 = load ptr, ptr %2, align 8
  %27 = load i32, ptr %3, align 4
  %28 = sext i32 %27 to i64
  %29 = getelementptr inbounds i32, ptr %26, i64 %28
  %30 = load i32, ptr %29, align 4
  %31 = icmp eq i32 %30, 32
  br i1 %31, label %39, label %32

32:                                               ; preds = %25
  %33 = load ptr, ptr %2, align 8
  %34 = load i32, ptr %3, align 4
  %35 = sext i32 %34 to i64
  %36 = getelementptr inbounds i32, ptr %33, i64 %35
  %37 = load i32, ptr %36, align 4
  %38 = icmp eq i32 %37, 9
  br label %39

39:                                               ; preds = %32, %25, %18, %11
  %40 = phi i1 [ true, %25 ], [ true, %18 ], [ true, %11 ], [ %38, %32 ]
  br label %41

41:                                               ; preds = %39, %8
  %42 = phi i1 [ false, %8 ], [ %40, %39 ]
  br i1 %42, label %43, label %51

43:                                               ; preds = %41
  %44 = load ptr, ptr %2, align 8
  %45 = load i32, ptr %3, align 4
  %46 = sext i32 %45 to i64
  %47 = getelementptr inbounds i32, ptr %44, i64 %46
  store i32 0, ptr %47, align 4
  br label %48

48:                                               ; preds = %43
  %49 = load i32, ptr %3, align 4
  %50 = add nsw i32 %49, -1
  store i32 %50, ptr %3, align 4
  br label %8, !llvm.loop !8

51:                                               ; preds = %41
  %52 = load ptr, ptr %2, align 8
  ret ptr %52
}