; Function Attrs: mustprogress nofree nounwind memory(argmem: readwrite) uwtable
define noundef ptr @_Z9RemoveEOLPw(ptr noundef returned %0) local_unnamed_addr #6 {
  %2 = tail call i64 @wcslen(ptr noundef %0) #17
  %3 = trunc i64 %2 to i32
  %4 = icmp sgt i32 %3, 0
  br i1 %4, label %.lr.ph.preheader, label %.critedge

.lr.ph.preheader:                                 ; preds = %1
  %5 = and i64 %2, 2147483647
  br label %.lr.ph

.lr.ph:                                           ; preds = %.lr.ph.preheader, %.critedge2
  %indvars.iv = phi i64 [ %5, %.lr.ph.preheader ], [ %indvars.iv.next, %.critedge2 ]
  %indvars.iv.next = add nsw i64 %indvars.iv, -1
  %6 = getelementptr inbounds i32, ptr %0, i64 %indvars.iv.next
  %7 = load i32, ptr %6, align 4
  switch i32 %7, label %.critedge [
    i32 13, label %.critedge2
    i32 10, label %.critedge2
    i32 32, label %.critedge2
    i32 9, label %.critedge2
  ]

.critedge2:                                       ; preds = %.lr.ph, %.lr.ph, %.lr.ph, %.lr.ph
  store i32 0, ptr %6, align 4
  %8 = icmp ugt i64 %indvars.iv, 1
  br i1 %8, label %.lr.ph, label %.critedge, !llvm.loop !8

.critedge:                                        ; preds = %.critedge2, %.lr.ph, %1
  ret ptr %0
}